target datalayout = "e-m:e-p270:32:32-p271:32:32-p272:64:64-i64:64-i128:128-f80:128-n8:16:32:64-S128"
target triple = "x86_64-pc-linux-gnu"

%struct.hm_fragment_st = type { %struct.hm_header_st, ptr, ptr }
%struct.hm_header_st = type { i8, i32, i16, i32, i32, i32, i16 }
%struct.ssl_st = type { i32, i16, i16, ptr, ptr, ptr, ptr, ptr, i32, i32, ptr, ptr, i32, i32, ptr, ptr, ptr, ptr, ptr, ptr, ptr, ptr, i32, i32, [32 x i8], ptr, ptr, ptr, ptr, ptr, ptr, ptr, i64, %struct.crypto_ex_data_st, ptr, i32, i32, i32, i32, i16, ptr, i32, i64, ptr, ptr, ptr, ptr, ptr, ptr, i32, i32, ptr, ptr, i8, i8, i32 }
%struct.crypto_ex_data_st = type { ptr }
%struct.dtls1_state_st = type { i32, [256 x i8], i64, i16, i16, %struct.dtls1_bitmap_st, i16, i16, i16, [8 x i8], ptr, ptr, i32, %struct.hm_header_st, i32, %struct.timeval, i16 }
%struct.dtls1_bitmap_st = type { i64, i64 }
%struct.timeval = type { i64, i64 }
%struct.buf_mem_st = type { i64, ptr, i64 }

; Function Attrs: nounwind uwtable
define hidden void @dtls1_hm_fragment_free(ptr noundef %0) #0 {
  %2 = alloca ptr, align 8
  store ptr %0, ptr %2, align 8, !tbaa !6
  %3 = load ptr, ptr %2, align 8, !tbaa !6
  %4 = icmp eq ptr %3, null
  br i1 %4, label %5, label %6

5:                                                ; preds = %1
  br label %14

6:                                                ; preds = %1
  %7 = load ptr, ptr %2, align 8, !tbaa !6
  %8 = getelementptr inbounds nuw %struct.hm_fragment_st, ptr %7, i32 0, i32 1
  %9 = load ptr, ptr %8, align 8, !tbaa !11
  call void @free(ptr noundef %9) #8
  %10 = load ptr, ptr %2, align 8, !tbaa !6
  %11 = getelementptr inbounds nuw %struct.hm_fragment_st, ptr %10, i32 0, i32 2
  %12 = load ptr, ptr %11, align 8, !tbaa !17
  call void @free(ptr noundef %12) #8
  %13 = load ptr, ptr %2, align 8, !tbaa !6
  call void @free(ptr noundef %13) #8
  br label %14

14:                                               ; preds = %6, %5
  ret void
}

; Function Attrs: nounwind uwtable
define internal zeroext i16 @dtls1_get_queue_priority(i16 noundef zeroext %0, i32 noundef %1) #0 {
  %3 = alloca i16, align 2
  %4 = alloca i32, align 4
  store i16 %0, ptr %3, align 2, !tbaa !110
  store i32 %1, ptr %4, align 4, !tbaa !20
  %5 = load i16, ptr %3, align 2, !tbaa !110
  %6 = zext i16 %5 to i32
  %7 = mul nsw i32 %6, 2
  %8 = load i32, ptr %4, align 4, !tbaa !20
  %9 = sub nsw i32 %7, %8
  %10 = trunc i32 %9 to i16
  ret i16 %10
}

; Function Attrs: nounwind uwtable
define hidden i32 @dtls1_buffer_message(ptr noundef %0) #0 {
  %2 = alloca i32, align 4
  %3 = alloca ptr, align 8
  %4 = alloca ptr, align 8
  %5 = alloca i32, align 4
  %6 = alloca i16, align 2
  %7 = alloca [8 x i8], align 1
  %8 = alloca ptr, align 8
  store ptr %0, ptr %3, align 8, !tbaa !18
  call void @llvm.lifetime.start.p0(i64 8, ptr %4) #8
  %9 = load ptr, ptr %3, align 8, !tbaa !18
  %10 = getelementptr inbounds nuw %struct.ssl_st, ptr %9, i32 0, i32 12
  %11 = load i32, ptr %10, align 8, !tbaa !51
  %12 = sext i32 %11 to i64
  %13 = call ptr @dtls1_hm_fragment_new(i64 noundef %12, i32 noundef 0)
  store ptr %13, ptr %4, align 8, !tbaa !6
  %14 = load ptr, ptr %4, align 8, !tbaa !6
  %15 = icmp ne ptr %14, null
  br i1 %15, label %17, label %16

16:                                               ; preds = %1
  store i32 0, ptr %2, align 4
  store i32 1, ptr %5, align 4
  br label %110

17:                                               ; preds = %1
  %18 = load ptr, ptr %4, align 8, !tbaa !6
  %19 = getelementptr inbounds nuw %struct.hm_fragment_st, ptr %18, i32 0, i32 1
  %20 = load ptr, ptr %19, align 8, !tbaa !11
  %21 = load ptr, ptr %3, align 8, !tbaa !18
  %22 = getelementptr inbounds nuw %struct.ssl_st, ptr %21, i32 0, i32 10
  %23 = load ptr, ptr %22, align 8, !tbaa !57
  %24 = getelementptr inbounds nuw %struct.buf_mem_st, ptr %23, i32 0, i32 1
  %25 = load ptr, ptr %24, align 8, !tbaa !58
  %26 = load ptr, ptr %3, align 8, !tbaa !18
  %27 = getelementptr inbounds nuw %struct.ssl_st, ptr %26, i32 0, i32 12
  %28 = load i32, ptr %27, align 8, !tbaa !51
  %29 = sext i32 %28 to i64
  call void @llvm.memcpy.p0.p0.i64(ptr align 1 %20, ptr align 1 %25, i64 %29, i1 false)
  %30 = load ptr, ptr %3, align 8, !tbaa !18
  %31 = getelementptr inbounds nuw %struct.ssl_st, ptr %30, i32 0, i32 15
  %32 = load ptr, ptr %31, align 8, !tbaa !21
  %33 = getelementptr inbounds nuw %struct.dtls1_state_st, ptr %32, i32 0, i32 13
  %34 = getelementptr inbounds nuw %struct.hm_header_st, ptr %33, i32 0, i32 1
  %35 = load i32, ptr %34, align 4, !tbaa !55
  %36 = load ptr, ptr %4, align 8, !tbaa !6
  %37 = getelementptr inbounds nuw %struct.hm_fragment_st, ptr %36, i32 0, i32 0
  %38 = getelementptr inbounds nuw %struct.hm_header_st, ptr %37, i32 0, i32 1
  store i32 %35, ptr %38, align 4, !tbaa !91
  %39 = load ptr, ptr %3, align 8, !tbaa !18
  %40 = getelementptr inbounds nuw %struct.ssl_st, ptr %39, i32 0, i32 15
  %41 = load ptr, ptr %40, align 8, !tbaa !21
  %42 = getelementptr inbounds nuw %struct.dtls1_state_st, ptr %41, i32 0, i32 13
  %43 = getelementptr inbounds nuw %struct.hm_header_st, ptr %42, i32 0, i32 2
  %44 = load i16, ptr %43, align 4, !tbaa !56
  %45 = load ptr, ptr %4, align 8, !tbaa !6
  %46 = getelementptr inbounds nuw %struct.hm_fragment_st, ptr %45, i32 0, i32 0
  %47 = getelementptr inbounds nuw %struct.hm_header_st, ptr %46, i32 0, i32 2
  store i16 %44, ptr %47, align 8, !tbaa !94
  %48 = load ptr, ptr %3, align 8, !tbaa !18
  %49 = getelementptr inbounds nuw %struct.ssl_st, ptr %48, i32 0, i32 15
  %50 = load ptr, ptr %49, align 8, !tbaa !21
  %51 = getelementptr inbounds nuw %struct.dtls1_state_st, ptr %50, i32 0, i32 13
  %52 = getelementptr inbounds nuw %struct.hm_header_st, ptr %51, i32 0, i32 0
  %53 = load i8, ptr %52, align 4, !tbaa !54
  %54 = load ptr, ptr %4, align 8, !tbaa !6
  %55 = getelementptr inbounds nuw %struct.hm_fragment_st, ptr %54, i32 0, i32 0
  %56 = getelementptr inbounds nuw %struct.hm_header_st, ptr %55, i32 0, i32 0
  store i8 %53, ptr %56, align 8, !tbaa !93
  %57 = load ptr, ptr %4, align 8, !tbaa !6
  %58 = getelementptr inbounds nuw %struct.hm_fragment_st, ptr %57, i32 0, i32 0
  %59 = getelementptr inbounds nuw %struct.hm_header_st, ptr %58, i32 0, i32 3
  store i32 0, ptr %59, align 4, !tbaa !109
  %60 = load ptr, ptr %3, align 8, !tbaa !18
  %61 = getelementptr inbounds nuw %struct.ssl_st, ptr %60, i32 0, i32 15
  %62 = load ptr, ptr %61, align 8, !tbaa !21
  %63 = getelementptr inbounds nuw %struct.dtls1_state_st, ptr %62, i32 0, i32 13
  %64 = getelementptr inbounds nuw %struct.hm_header_st, ptr %63, i32 0, i32 1
  %65 = load i32, ptr %64, align 4, !tbaa !55
  %66 = load ptr, ptr %4, align 8, !tbaa !6
  %67 = getelementptr inbounds nuw %struct.hm_fragment_st, ptr %66, i32 0, i32 0
  %68 = getelementptr inbounds nuw %struct.hm_header_st, ptr %67, i32 0, i32 4
  store i32 %65, ptr %68, align 8, !tbaa !108
  %69 = load ptr, ptr %4, align 8, !tbaa !6
  %70 = getelementptr inbounds nuw %struct.hm_fragment_st, ptr %69, i32 0, i32 0
  %71 = getelementptr inbounds nuw %struct.hm_header_st, ptr %70, i32 0, i32 5
  store i32 0, ptr %71, align 4, !tbaa !107
  %72 = load ptr, ptr %3, align 8, !tbaa !18
  %73 = getelementptr inbounds nuw %struct.ssl_st, ptr %72, i32 0, i32 15
  %74 = load ptr, ptr %73, align 8, !tbaa !21
  %75 = getelementptr inbounds nuw %struct.dtls1_state_st, ptr %74, i32 0, i32 4
  %76 = load i16, ptr %75, align 2, !tbaa !105
  %77 = load ptr, ptr %4, align 8, !tbaa !6
  %78 = getelementptr inbounds nuw %struct.hm_fragment_st, ptr %77, i32 0, i32 0
  %79 = getelementptr inbounds nuw %struct.hm_header_st, ptr %78, i32 0, i32 6
  store i16 %76, ptr %79, align 8, !tbaa !106
  call void @llvm.lifetime.start.p0(i64 2, ptr %6) #8
  %80 = load ptr, ptr %4, align 8, !tbaa !6
  %81 = getelementptr inbounds nuw %struct.hm_fragment_st, ptr %80, i32 0, i32 0
  %82 = getelementptr inbounds nuw %struct.hm_header_st, ptr %81, i32 0, i32 2
  %83 = load i16, ptr %82, align 8, !tbaa !94
  %84 = call zeroext i16 @dtls1_get_queue_priority(i16 noundef zeroext %83, i32 noundef 0)
  store i16 %84, ptr %6, align 2, !tbaa !110
  call void @llvm.lifetime.start.p0(i64 8, ptr %7) #8
  %85 = getelementptr inbounds [8 x i8], ptr %7, i64 0, i64 0
  call void @llvm.memset.p0.i64(ptr align 1 %85, i8 0, i64 8, i1 false)
  %86 = load i16, ptr %6, align 2, !tbaa !110
  %87 = zext i16 %86 to i32
  %88 = ashr i32 %87, 8
  %89 = trunc i32 %88 to i8
  %90 = getelementptr inbounds [8 x i8], ptr %7, i64 0, i64 6
  store i8 %89, ptr %90, align 1, !tbaa !111
  %91 = load i16, ptr %6, align 2, !tbaa !110
  %92 = trunc i16 %91 to i8
  %93 = getelementptr inbounds [8 x i8], ptr %7, i64 0, i64 7
  store i8 %92, ptr %93, align 1, !tbaa !111
  call void @llvm.lifetime.start.p0(i64 8, ptr %8) #8
  %94 = getelementptr inbounds [8 x i8], ptr %7, i64 0, i64 0
  %95 = load ptr, ptr %4, align 8, !tbaa !6
  %96 = call ptr @pitem_new(ptr noundef %94, ptr noundef %95)
  store ptr %96, ptr %8, align 8, !tbaa !67
  %97 = load ptr, ptr %8, align 8, !tbaa !67
  %98 = icmp eq ptr %97, null
  br i1 %98, label %99, label %101

99:                                               ; preds = %17
  %100 = load ptr, ptr %4, align 8, !tbaa !6
  call void @dtls1_hm_fragment_free(ptr noundef %100)
  store i32 0, ptr %2, align 4
  store i32 1, ptr %5, align 4
  br label %109

101:                                              ; preds = %17
  %102 = load ptr, ptr %3, align 8, !tbaa !18
  %103 = getelementptr inbounds nuw %struct.ssl_st, ptr %102, i32 0, i32 15
  %104 = load ptr, ptr %103, align 8, !tbaa !21
  %105 = getelementptr inbounds nuw %struct.dtls1_state_st, ptr %104, i32 0, i32 11
  %106 = load ptr, ptr %105, align 8, !tbaa !102
  %107 = load ptr, ptr %8, align 8, !tbaa !67
  %108 = call ptr @pqueue_insert(ptr noundef %106, ptr noundef %107)
  store i32 1, ptr %2, align 4
  store i32 1, ptr %5, align 4
  br label %109

109:                                              ; preds = %101, %99
  call void @llvm.lifetime.end.p0(i64 8, ptr %8) #8
  call void @llvm.lifetime.end.p0(i64 8, ptr %7) #8
  call void @llvm.lifetime.end.p0(i64 2, ptr %6) #8
  br label %110

110:                                              ; preds = %109, %16
  call void @llvm.lifetime.end.p0(i64 8, ptr %4) #8
  %111 = load i32, ptr %2, align 4
  ret i32 %111
}