; Function Attrs: nounwind uwtable
define hidden range(i32 0, 2) i32 @dtls1_buffer_message(ptr noundef readonly captures(none) %0) local_unnamed_addr #2 {
  %2 = alloca [8 x i8], align 8
  %3 = getelementptr inbounds nuw i8, ptr %0, i64 72
  %4 = load i32, ptr %3, align 8, !tbaa !45
  %5 = sext i32 %4 to i64
  %6 = tail call fastcc ptr @dtls1_hm_fragment_new(i64 noundef %5, i32 noundef 0)
  %.not = icmp eq ptr %6, null
  br i1 %.not, label %49, label %7

7:                                                ; preds = %1
  %8 = getelementptr inbounds nuw i8, ptr %6, i64 32
  %9 = load ptr, ptr %8, align 8, !tbaa !6
  %10 = getelementptr inbounds nuw i8, ptr %0, i64 56
  %11 = load ptr, ptr %10, align 8, !tbaa !50
  %12 = getelementptr inbounds nuw i8, ptr %11, i64 8
  %13 = load ptr, ptr %12, align 8, !tbaa !51
  %14 = load i32, ptr %3, align 8, !tbaa !45
  %15 = sext i32 %14 to i64
  tail call void @llvm.memcpy.p0.p0.i64(ptr align 1 %9, ptr align 1 %13, i64 %15, i1 false)
  %16 = getelementptr inbounds nuw i8, ptr %0, i64 88
  %17 = load ptr, ptr %16, align 8, !tbaa !16
  %18 = getelementptr inbounds nuw i8, ptr %17, i64 336
  %19 = load i32, ptr %18, align 4, !tbaa !48
  %20 = getelementptr inbounds nuw i8, ptr %6, i64 4
  store i32 %19, ptr %20, align 4, !tbaa !89
  %21 = getelementptr inbounds nuw i8, ptr %17, i64 340
  %22 = load i16, ptr %21, align 4, !tbaa !49
  %23 = getelementptr inbounds nuw i8, ptr %6, i64 8
  store i16 %22, ptr %23, align 8, !tbaa !83
  %24 = getelementptr inbounds nuw i8, ptr %17, i64 332
  %25 = load i8, ptr %24, align 4, !tbaa !47
  store i8 %25, ptr %6, align 8, !tbaa !88
  %26 = getelementptr inbounds nuw i8, ptr %6, i64 12
  store i32 0, ptr %26, align 4, !tbaa !105
  %27 = getelementptr inbounds nuw i8, ptr %6, i64 16
  store i32 %19, ptr %27, align 8, !tbaa !98
  %28 = getelementptr inbounds nuw i8, ptr %6, i64 20
  store i32 0, ptr %28, align 4, !tbaa !97
  %29 = getelementptr inbounds nuw i8, ptr %17, i64 274
  %30 = load i16, ptr %29, align 2, !tbaa !95
  %31 = getelementptr inbounds nuw i8, ptr %6, i64 24
  store i16 %30, ptr %31, align 8, !tbaa !96
  %32 = shl i16 %22, 1
  call void @llvm.lifetime.start.p0(i64 8, ptr nonnull %2) #13
  store i64 0, ptr %2, align 8
  %33 = lshr i16 %32, 8
  %34 = trunc nuw i16 %33 to i8
  %35 = getelementptr inbounds nuw i8, ptr %2, i64 6
  store i8 %34, ptr %35, align 2, !tbaa !84
  %36 = trunc i16 %32 to i8
  %37 = getelementptr inbounds nuw i8, ptr %2, i64 7
  store i8 %36, ptr %37, align 1, !tbaa !84
  %38 = call ptr @pitem_new(ptr noundef nonnull %2, ptr noundef nonnull %6) #13
  %39 = icmp eq ptr %38, null
  br i1 %39, label %dtls1_hm_fragment_free.exit, label %43

dtls1_hm_fragment_free.exit:                      ; preds = %7
  %40 = load ptr, ptr %8, align 8, !tbaa !6
  call void @free(ptr noundef %40) #13
  %41 = getelementptr inbounds nuw i8, ptr %6, i64 40
  %42 = load ptr, ptr %41, align 8, !tbaa !15
  call void @free(ptr noundef %42) #13
  call void @free(ptr noundef nonnull %6) #13
  br label %48

43:                                               ; preds = %7
  %44 = load ptr, ptr %16, align 8, !tbaa !16
  %45 = getelementptr inbounds nuw i8, ptr %44, i64 320
  %46 = load ptr, ptr %45, align 8, !tbaa !93
  %47 = call ptr @pqueue_insert(ptr noundef %46, ptr noundef nonnull %38) #13
  br label %48

48:                                               ; preds = %43, %dtls1_hm_fragment_free.exit
  %.1 = phi i32 [ 0, %dtls1_hm_fragment_free.exit ], [ 1, %43 ]
  call void @llvm.lifetime.end.p0(i64 8, ptr nonnull %2) #13
  br label %49

49:                                               ; preds = %1, %48
  %.0 = phi i32 [ %.1, %48 ], [ 0, %1 ]
  ret i32 %.0
}